; Function Attrs: mustprogress uwtable
define internal fastcc void @"_ZZN19OpenColorIO_v2_4dev15LocalFileFormat23ValidateParametricCurveEttPKiRKNSt7__cxx1112basic_stringIcSt11char_traitsIcESaIcEEEENK3$_2clESA_"(ptr noundef nonnull align 8 dereferenceable(48) %this, ptr noundef nonnull align 8 dereferenceable(32) %msg) unnamed_addr #6 align 2 personality ptr @__gxx_personality_v0 {
entry:
  %oss = alloca %"class.std::__cxx11::basic_ostringstream", align 8
  %ref.tmp = alloca %"class.std::__cxx11::basic_string", align 8
  call void @_ZNSt7__cxx1119basic_ostringstreamIcSt11char_traitsIcESaIcEEC1Ev(ptr noundef nonnull align 8 dereferenceable(112) %oss)
  %call = invoke noundef nonnull align 8 dereferenceable(8) ptr @_ZStlsISt11char_traitsIcEERSt13basic_ostreamIcT_ES5_PKc(ptr noundef nonnull align 8 dereferenceable(8) %oss, ptr noundef nonnull @.str.46)
          to label %invoke.cont unwind label %lpad.loopexit.split-lp

invoke.cont:                                      ; preds = %entry
  %call3 = invoke noundef nonnull align 8 dereferenceable(8) ptr @_ZStlsIcSt11char_traitsIcESaIcEERSt13basic_ostreamIT_T0_ES7_RKNSt7__cxx1112basic_stringIS4_S5_T1_EE(ptr noundef nonnull align 8 dereferenceable(8) %oss, ptr noundef nonnull align 8 dereferenceable(32) %this)
          to label %invoke.cont2 unwind label %lpad.loopexit.split-lp

invoke.cont2:                                     ; preds = %invoke.cont
  %call5 = invoke noundef nonnull align 8 dereferenceable(8) ptr @_ZStlsISt11char_traitsIcEERSt13basic_ostreamIcT_ES5_PKc(ptr noundef nonnull align 8 dereferenceable(8) %oss, ptr noundef nonnull @.str.7)
          to label %invoke.cont4 unwind label %lpad.loopexit.split-lp

invoke.cont4:                                     ; preds = %invoke.cont2
  %call7 = invoke noundef nonnull align 8 dereferenceable(8) ptr @_ZStlsISt11char_traitsIcEERSt13basic_ostreamIcT_ES5_PKc(ptr noundef nonnull align 8 dereferenceable(8) %oss, ptr noundef nonnull @.str.47)
          to label %for.cond.preheader unwind label %lpad.loopexit.split-lp

for.cond.preheader:                               ; preds = %invoke.cont4
  %0 = getelementptr inbounds i8, ptr %this, i64 32
  %1 = load i16, ptr %0, align 8
  %cmp8.not10 = icmp eq i16 %1, 0
  br i1 %cmp8.not10, label %for.end, label %for.body.lr.ph

for.body.lr.ph:                                   ; preds = %for.cond.preheader
  %2 = getelementptr inbounds i8, ptr %this, i64 40
  br label %for.body

for.body:                                         ; preds = %for.body.lr.ph, %for.inc
  %indvars.iv = phi i64 [ 0, %for.body.lr.ph ], [ %indvars.iv.next, %for.inc ]
  %cmp8.not = icmp eq i64 %indvars.iv, 0
  br i1 %cmp8.not, label %if.end, label %if.then

if.then:                                          ; preds = %for.body
  %call10 = invoke noundef nonnull align 8 dereferenceable(8) ptr @_ZStlsISt11char_traitsIcEERSt13basic_ostreamIcT_ES5_PKc(ptr noundef nonnull align 8 dereferenceable(8) %oss, ptr noundef nonnull @.str.44)
          to label %if.end unwind label %lpad.loopexit

lpad.loopexit:                                    ; preds = %if.then, %if.end
  %lpad.loopexit5 = landingpad { ptr, i32 }
          cleanup
  br label %ehcleanup

lpad.loopexit.split-lp:                           ; preds = %entry, %invoke.cont, %invoke.cont2, %invoke.cont4, %for.end, %invoke.cont14, %invoke.cont16
  %lpad.loopexit.split-lp6 = landingpad { ptr, i32 }
          cleanup
  br label %ehcleanup

if.end:                                           ; preds = %if.then, %for.body
  %3 = load ptr, ptr %2, align 8
  %arrayidx = getelementptr inbounds i32, ptr %3, i64 %indvars.iv
  %4 = load i32, ptr %arrayidx, align 4
  %conv.i = sitofp i32 %4 to double
  %div.i = fmul double %conv.i, 0x3EF0000000000000
  %conv1.i = fptrunc double %div.i to float
  %call13 = invoke noundef nonnull align 8 dereferenceable(8) ptr @_ZNSolsEf(ptr noundef nonnull align 8 dereferenceable(8) %oss, float noundef %conv1.i)
          to label %for.inc unwind label %lpad.loopexit

for.inc:                                          ; preds = %if.end
  %indvars.iv.next = add nuw nsw i64 %indvars.iv, 1
  %5 = load i16, ptr %0, align 8
  %6 = zext i16 %5 to i64
  %cmp = icmp ult i64 %indvars.iv.next, %6
  br i1 %cmp, label %for.body, label %for.end, !llvm.loop !23

for.end:                                          ; preds = %for.inc, %for.cond.preheader
  %call15 = invoke noundef nonnull align 8 dereferenceable(8) ptr @_ZStlsISt11char_traitsIcEERSt13basic_ostreamIcT_ES5_PKc(ptr noundef nonnull align 8 dereferenceable(8) %oss, ptr noundef nonnull @.str.45)
          to label %invoke.cont14 unwind label %lpad.loopexit.split-lp

invoke.cont14:                                    ; preds = %for.end
  %call17 = invoke noundef nonnull align 8 dereferenceable(8) ptr @_ZStlsIcSt11char_traitsIcESaIcEERSt13basic_ostreamIT_T0_ES7_RKNSt7__cxx1112basic_stringIS4_S5_T1_EE(ptr noundef nonnull align 8 dereferenceable(8) %call15, ptr noundef nonnull align 8 dereferenceable(32) %msg)
          to label %invoke.cont16 unwind label %lpad.loopexit.split-lp

invoke.cont16:                                    ; preds = %invoke.cont14
  invoke void @_ZNKSt7__cxx1119basic_ostringstreamIcSt11char_traitsIcESaIcEE3strEv(ptr nonnull sret(%"class.std::__cxx11::basic_string") align 8 %ref.tmp, ptr noundef nonnull align 8 dereferenceable(112) %oss)
          to label %invoke.cont18 unwind label %lpad.loopexit.split-lp

invoke.cont18:                                    ; preds = %invoke.cont16
  invoke void @_ZN19OpenColorIO_v2_4dev10LogWarningERKNSt7__cxx1112basic_stringIcSt11char_traitsIcESaIcEEE(ptr noundef nonnull align 8 dereferenceable(32) %ref.tmp)
          to label %invoke.cont20 unwind label %lpad19

invoke.cont20:                                    ; preds = %invoke.cont18
  call void @_ZNSt7__cxx1112basic_stringIcSt11char_traitsIcESaIcEED1Ev(ptr noundef nonnull align 8 dereferenceable(32) %ref.tmp) #28
  call void @_ZNSt7__cxx1119basic_ostringstreamIcSt11char_traitsIcESaIcEED1Ev(ptr noundef nonnull align 8 dereferenceable(112) %oss) #28
  ret void

lpad19:                                           ; preds = %invoke.cont18
  %7 = landingpad { ptr, i32 }
          cleanup
  call void @_ZNSt7__cxx1112basic_stringIcSt11char_traitsIcESaIcEED1Ev(ptr noundef nonnull align 8 dereferenceable(32) %ref.tmp) #28
  br label %ehcleanup

ehcleanup:                                        ; preds = %lpad.loopexit, %lpad.loopexit.split-lp, %lpad19
  %.pn = phi { ptr, i32 } [ %7, %lpad19 ], [ %lpad.loopexit5, %lpad.loopexit ], [ %lpad.loopexit.split-lp6, %lpad.loopexit.split-lp ]
  call void @_ZNSt7__cxx1119basic_ostringstreamIcSt11char_traitsIcESaIcEED1Ev(ptr noundef nonnull align 8 dereferenceable(112) %oss) #28
  resume { ptr, i32 } %.pn
}